(dp0
Va
p1
F0
sVand
p2
F0
sVgreat
p3
F0
sVname
p4
F0
sVthat
p5
F1
sVthis
p6
F0
sVis
p7
F0
sVwhat
p8
F1
sVso
p9
F0
sVtest
p10
F0.33333333333333331
sVyour
p11
F0
s.(dp0
Va
p1
F0
sVand
p2
F0
sVgreat
p3
F0
sVname
p4
F0
sVthat
p5
F0
sVthis
p6
F0
sVis
p7
F0
sVwhat
p8
F0
sVso
p9
F0
sVtest
p10
F0
sVyour
p11
F0
s.(dp0
Vtest
p1
L1L
s.